target datalayout = "e-m:e-p270:32:32-p271:32:32-p272:64:64-i64:64-i128:128-f80:128-n8:16:32:64-S128"
target triple = "x86_64-pc-linux-gnu"

%struct.wc_Sha256 = type { [8 x i32], [16 x i32], i32, i32, i32, ptr, [8 x i8] }

; Function Attrs: nounwind uwtable
define internal i32 @InitSha224(ptr noundef %0) #0 {
  %2 = alloca ptr, align 8
  %3 = alloca i32, align 4
  store ptr %0, ptr %2, align 8, !tbaa !3
  call void @llvm.lifetime.start.p0(i64 4, ptr %3) #5
  store i32 0, ptr %3, align 4, !tbaa !9
  %4 = load ptr, ptr %2, align 8, !tbaa !3
  %5 = getelementptr inbounds nuw %struct.wc_Sha256, ptr %4, i32 0, i32 0
  %6 = getelementptr inbounds [8 x i32], ptr %5, i64 0, i64 0
  store i32 -1056596264, ptr %6, align 16, !tbaa !9
  %7 = load ptr, ptr %2, align 8, !tbaa !3
  %8 = getelementptr inbounds nuw %struct.wc_Sha256, ptr %7, i32 0, i32 0
  %9 = getelementptr inbounds [8 x i32], ptr %8, i64 0, i64 1
  store i32 914150663, ptr %9, align 4, !tbaa !9
  %10 = load ptr, ptr %2, align 8, !tbaa !3
  %11 = getelementptr inbounds nuw %struct.wc_Sha256, ptr %10, i32 0, i32 0
  %12 = getelementptr inbounds [8 x i32], ptr %11, i64 0, i64 2
  store i32 812702999, ptr %12, align 8, !tbaa !9
  %13 = load ptr, ptr %2, align 8, !tbaa !3
  %14 = getelementptr inbounds nuw %struct.wc_Sha256, ptr %13, i32 0, i32 0
  %15 = getelementptr inbounds [8 x i32], ptr %14, i64 0, i64 3
  store i32 -150054599, ptr %15, align 4, !tbaa !9
  %16 = load ptr, ptr %2, align 8, !tbaa !3
  %17 = getelementptr inbounds nuw %struct.wc_Sha256, ptr %16, i32 0, i32 0
  %18 = getelementptr inbounds [8 x i32], ptr %17, i64 0, i64 4
  store i32 -4191439, ptr %18, align 16, !tbaa !9
  %19 = load ptr, ptr %2, align 8, !tbaa !3
  %20 = getelementptr inbounds nuw %struct.wc_Sha256, ptr %19, i32 0, i32 0
  %21 = getelementptr inbounds [8 x i32], ptr %20, i64 0, i64 5
  store i32 1750603025, ptr %21, align 4, !tbaa !9
  %22 = load ptr, ptr %2, align 8, !tbaa !3
  %23 = getelementptr inbounds nuw %struct.wc_Sha256, ptr %22, i32 0, i32 0
  %24 = getelementptr inbounds [8 x i32], ptr %23, i64 0, i64 6
  store i32 1694076839, ptr %24, align 8, !tbaa !9
  %25 = load ptr, ptr %2, align 8, !tbaa !3
  %26 = getelementptr inbounds nuw %struct.wc_Sha256, ptr %25, i32 0, i32 0
  %27 = getelementptr inbounds [8 x i32], ptr %26, i64 0, i64 7
  store i32 -1090891868, ptr %27, align 4, !tbaa !9
  %28 = load ptr, ptr %2, align 8, !tbaa !3
  %29 = getelementptr inbounds nuw %struct.wc_Sha256, ptr %28, i32 0, i32 2
  store i32 0, ptr %29, align 16, !tbaa !13
  %30 = load ptr, ptr %2, align 8, !tbaa !3
  %31 = getelementptr inbounds nuw %struct.wc_Sha256, ptr %30, i32 0, i32 3
  store i32 0, ptr %31, align 4, !tbaa !14
  %32 = load ptr, ptr %2, align 8, !tbaa !3
  %33 = getelementptr inbounds nuw %struct.wc_Sha256, ptr %32, i32 0, i32 4
  store i32 0, ptr %33, align 8, !tbaa !15
  %34 = load i32, ptr %3, align 4, !tbaa !9
  call void @llvm.lifetime.end.p0(i64 4, ptr %3) #5
  ret i32 %34
}

; Function Attrs: nounwind uwtable
define i32 @wc_InitSha224_ex(ptr noundef %0, ptr noundef %1, i32 noundef %2) #0 {
  %4 = alloca i32, align 4
  %5 = alloca ptr, align 8
  %6 = alloca ptr, align 8
  %7 = alloca i32, align 4
  %8 = alloca i32, align 4
  %9 = alloca i32, align 4
  store ptr %0, ptr %5, align 8, !tbaa !3
  store ptr %1, ptr %6, align 8, !tbaa !8
  store i32 %2, ptr %7, align 4, !tbaa !9
  call void @llvm.lifetime.start.p0(i64 4, ptr %8) #5
  store i32 0, ptr %8, align 4, !tbaa !9
  %10 = load ptr, ptr %5, align 8, !tbaa !3
  %11 = icmp eq ptr %10, null
  br i1 %11, label %12, label %13

12:                                               ; preds = %3
  store i32 -173, ptr %4, align 4
  store i32 1, ptr %9, align 4
  br label %25

13:                                               ; preds = %3
  %14 = load ptr, ptr %6, align 8, !tbaa !8
  %15 = load ptr, ptr %5, align 8, !tbaa !3
  %16 = getelementptr inbounds nuw %struct.wc_Sha256, ptr %15, i32 0, i32 5
  store ptr %14, ptr %16, align 16, !tbaa !11
  %17 = load ptr, ptr %5, align 8, !tbaa !3
  %18 = call i32 @InitSha224(ptr noundef %17)
  store i32 %18, ptr %8, align 4, !tbaa !9
  %19 = load i32, ptr %8, align 4, !tbaa !9
  %20 = icmp ne i32 %19, 0
  br i1 %20, label %21, label %23

21:                                               ; preds = %13
  %22 = load i32, ptr %8, align 4, !tbaa !9
  store i32 %22, ptr %4, align 4
  store i32 1, ptr %9, align 4
  br label %25

23:                                               ; preds = %13
  %24 = load i32, ptr %8, align 4, !tbaa !9
  store i32 %24, ptr %4, align 4
  store i32 1, ptr %9, align 4
  br label %25

25:                                               ; preds = %23, %21, %12
  call void @llvm.lifetime.end.p0(i64 4, ptr %8) #5
  %26 = load i32, ptr %4, align 4
  ret i32 %26
}