; Function Attrs: mustprogress nofree norecurse nosync nounwind willreturn memory(argmem: write) uwtable
define range(i32 -173, 1) i32 @wc_InitSha224_ex(ptr noundef writeonly captures(address_is_null) %0, ptr noundef %1, i32 noundef %2) local_unnamed_addr #0 {
  %4 = icmp eq ptr %0, null
  br i1 %4, label %17, label %5

5:                                                ; preds = %3
  %6 = getelementptr inbounds nuw i8, ptr %0, i64 112
  store ptr %1, ptr %6, align 16, !tbaa !12
  store i32 -1056596264, ptr %0, align 16, !tbaa !3
  %7 = getelementptr inbounds nuw i8, ptr %0, i64 4
  store i32 914150663, ptr %7, align 4, !tbaa !3
  %8 = getelementptr inbounds nuw i8, ptr %0, i64 8
  store i32 812702999, ptr %8, align 8, !tbaa !3
  %9 = getelementptr inbounds nuw i8, ptr %0, i64 12
  store i32 -150054599, ptr %9, align 4, !tbaa !3
  %10 = getelementptr inbounds nuw i8, ptr %0, i64 16
  store i32 -4191439, ptr %10, align 16, !tbaa !3
  %11 = getelementptr inbounds nuw i8, ptr %0, i64 20
  store i32 1750603025, ptr %11, align 4, !tbaa !3
  %12 = getelementptr inbounds nuw i8, ptr %0, i64 24
  store i32 1694076839, ptr %12, align 8, !tbaa !3
  %13 = getelementptr inbounds nuw i8, ptr %0, i64 28
  store i32 -1090891868, ptr %13, align 4, !tbaa !3
  %14 = getelementptr inbounds nuw i8, ptr %0, i64 96
  store i32 0, ptr %14, align 16, !tbaa !7
  %15 = getelementptr inbounds nuw i8, ptr %0, i64 100
  store i32 0, ptr %15, align 4, !tbaa !10
  %16 = getelementptr inbounds nuw i8, ptr %0, i64 104
  store i32 0, ptr %16, align 8, !tbaa !11
  br label %17

17:                                               ; preds = %3, %5
  %.0 = phi i32 [ 0, %5 ], [ -173, %3 ]
  ret i32 %.0
}